target datalayout = "e-m:e-p270:32:32-p271:32:32-p272:64:64-i64:64-i128:128-f80:128-n8:16:32:64-S128"
target triple = "x86_64-pc-linux-gnu"

%struct.ForEachState = type { ptr, i32 }
%struct.List = type { i32, i32, i32, ptr, [0 x %union.ListCell] }
%union.ListCell = type { ptr }
%struct.Node = type { i32 }
%struct.Expr = type { i32 }
%struct.TargetEntry = type { %struct.Expr, ptr, i16, ptr, i32, i32, i16, i8 }
%struct.SortGroupClause = type { i32, i32, i32, i32, i8, i8, i8 }
%struct.ParseCallbackState = type { ptr, i32, %struct.ErrorContextCallback }
%struct.ErrorContextCallback = type { ptr, ptr, ptr }

; Function Attrs: nounwind uwtable
define dso_local i32 @assignSortGroupRef(ptr noundef %0, ptr noundef %1) #0 {
  %3 = alloca i32, align 4
  %4 = alloca ptr, align 8
  %5 = alloca ptr, align 8
  %6 = alloca i32, align 4
  %7 = alloca ptr, align 8
  %8 = alloca i32, align 4
  %9 = alloca %struct.ForEachState, align 8
  %10 = alloca i32, align 4
  store ptr %0, ptr %4, align 8
  store ptr %1, ptr %5, align 8
  call void @llvm.lifetime.start.p0(i64 4, ptr %6) #8
  call void @llvm.lifetime.start.p0(i64 8, ptr %7) #8
  %11 = load ptr, ptr %4, align 8
  %12 = getelementptr inbounds nuw %struct.TargetEntry, ptr %11, i32 0, i32 4
  %13 = load i32, ptr %12, align 8
  %14 = icmp ne i32 %13, 0
  br i1 %14, label %15, label %19

15:                                               ; preds = %2
  %16 = load ptr, ptr %4, align 8
  %17 = getelementptr inbounds nuw %struct.TargetEntry, ptr %16, i32 0, i32 4
  %18 = load i32, ptr %17, align 8
  store i32 %18, ptr %3, align 4
  store i32 1, ptr %8, align 4
  br label %73

19:                                               ; preds = %2
  store i32 0, ptr %6, align 4
  call void @llvm.lifetime.start.p0(i64 16, ptr %9) #8
  %20 = getelementptr inbounds nuw %struct.ForEachState, ptr %9, i32 0, i32 0
  %21 = load ptr, ptr %5, align 8
  store ptr %21, ptr %20, align 8
  %22 = getelementptr inbounds nuw %struct.ForEachState, ptr %9, i32 0, i32 1
  store i32 0, ptr %22, align 8
  %23 = getelementptr i8, ptr %9, i64 12
  call void @llvm.memset.p0.i64(ptr align 4 %23, i8 0, i64 4, i1 false)
  br label %24

24:                                               ; preds = %61, %19
  %25 = getelementptr inbounds nuw %struct.ForEachState, ptr %9, i32 0, i32 0
  %26 = load ptr, ptr %25, align 8
  %27 = icmp ne ptr %26, null
  br i1 %27, label %28, label %45

28:                                               ; preds = %24
  %29 = getelementptr inbounds nuw %struct.ForEachState, ptr %9, i32 0, i32 1
  %30 = load i32, ptr %29, align 8
  %31 = getelementptr inbounds nuw %struct.ForEachState, ptr %9, i32 0, i32 0
  %32 = load ptr, ptr %31, align 8
  %33 = getelementptr inbounds nuw %struct.List, ptr %32, i32 0, i32 1
  %34 = load i32, ptr %33, align 4
  %35 = icmp slt i32 %30, %34
  br i1 %35, label %36, label %45

36:                                               ; preds = %28
  %37 = getelementptr inbounds nuw %struct.ForEachState, ptr %9, i32 0, i32 0
  %38 = load ptr, ptr %37, align 8
  %39 = getelementptr inbounds nuw %struct.List, ptr %38, i32 0, i32 3
  %40 = load ptr, ptr %39, align 8
  %41 = getelementptr inbounds nuw %struct.ForEachState, ptr %9, i32 0, i32 1
  %42 = load i32, ptr %41, align 8
  %43 = sext i32 %42 to i64
  %44 = getelementptr inbounds %union.ListCell, ptr %40, i64 %43
  store ptr %44, ptr %7, align 8
  br label %46

45:                                               ; preds = %28, %24
  store ptr null, ptr %7, align 8
  br label %46

46:                                               ; preds = %45, %36
  %47 = phi i32 [ 1, %36 ], [ 0, %45 ]
  %48 = icmp ne i32 %47, 0
  br i1 %48, label %50, label %49

49:                                               ; preds = %46
  store i32 2, ptr %8, align 4
  call void @llvm.lifetime.end.p0(i64 16, ptr %9) #8
  br label %65

50:                                               ; preds = %46
  call void @llvm.lifetime.start.p0(i64 4, ptr %10) #8
  %51 = load ptr, ptr %7, align 8
  %52 = load ptr, ptr %51, align 8
  %53 = getelementptr inbounds nuw %struct.TargetEntry, ptr %52, i32 0, i32 4
  %54 = load i32, ptr %53, align 8
  store i32 %54, ptr %10, align 4
  %55 = load i32, ptr %10, align 4
  %56 = load i32, ptr %6, align 4
  %57 = icmp ugt i32 %55, %56
  br i1 %57, label %58, label %60

58:                                               ; preds = %50
  %59 = load i32, ptr %10, align 4
  store i32 %59, ptr %6, align 4
  br label %60

60:                                               ; preds = %58, %50
  call void @llvm.lifetime.end.p0(i64 4, ptr %10) #8
  br label %61

61:                                               ; preds = %60
  %62 = getelementptr inbounds nuw %struct.ForEachState, ptr %9, i32 0, i32 1
  %63 = load i32, ptr %62, align 8
  %64 = add i32 %63, 1
  store i32 %64, ptr %62, align 8
  br label %24, !llvm.loop !35

65:                                               ; preds = %49
  %66 = load i32, ptr %6, align 4
  %67 = add i32 %66, 1
  %68 = load ptr, ptr %4, align 8
  %69 = getelementptr inbounds nuw %struct.TargetEntry, ptr %68, i32 0, i32 4
  store i32 %67, ptr %69, align 8
  %70 = load ptr, ptr %4, align 8
  %71 = getelementptr inbounds nuw %struct.TargetEntry, ptr %70, i32 0, i32 4
  %72 = load i32, ptr %71, align 8
  store i32 %72, ptr %3, align 4
  store i32 1, ptr %8, align 4
  br label %73

73:                                               ; preds = %65, %15
  call void @llvm.lifetime.end.p0(i64 8, ptr %7) #8
  call void @llvm.lifetime.end.p0(i64 4, ptr %6) #8
  %74 = load i32, ptr %3, align 4
  ret i32 %74
}

; Function Attrs: inlinehint nounwind uwtable
define internal ptr @newNode(i64 noundef %0, i32 noundef %1) #5 {
  %3 = alloca i64, align 8
  %4 = alloca i32, align 4
  %5 = alloca ptr, align 8
  store i64 %0, ptr %3, align 8
  store i32 %1, ptr %4, align 4
  call void @llvm.lifetime.start.p0(i64 8, ptr %5) #8
  %6 = load i64, ptr %3, align 8
  %7 = call ptr @palloc0(i64 noundef %6)
  store ptr %7, ptr %5, align 8
  %8 = load i32, ptr %4, align 4
  %9 = load ptr, ptr %5, align 8
  %10 = getelementptr inbounds nuw %struct.Node, ptr %9, i32 0, i32 0
  store i32 %8, ptr %10, align 4
  %11 = load ptr, ptr %5, align 8
  call void @llvm.lifetime.end.p0(i64 8, ptr %5) #8
  ret ptr %11
}

; Function Attrs: nounwind uwtable
define dso_local zeroext i1 @targetIsInSortList(ptr noundef %0, i32 noundef %1, ptr noundef %2) #0 {
  %4 = alloca i1, align 1
  %5 = alloca ptr, align 8
  %6 = alloca i32, align 4
  %7 = alloca ptr, align 8
  %8 = alloca i32, align 4
  %9 = alloca ptr, align 8
  %10 = alloca i32, align 4
  %11 = alloca %struct.ForEachState, align 8
  %12 = alloca ptr, align 8
  store ptr %0, ptr %5, align 8
  store i32 %1, ptr %6, align 4
  store ptr %2, ptr %7, align 8
  call void @llvm.lifetime.start.p0(i64 4, ptr %8) #8
  %13 = load ptr, ptr %5, align 8
  %14 = getelementptr inbounds nuw %struct.TargetEntry, ptr %13, i32 0, i32 4
  %15 = load i32, ptr %14, align 8
  store i32 %15, ptr %8, align 4
  call void @llvm.lifetime.start.p0(i64 8, ptr %9) #8
  %16 = load i32, ptr %8, align 4
  %17 = icmp eq i32 %16, 0
  br i1 %17, label %18, label %19

18:                                               ; preds = %3
  store i1 false, ptr %4, align 1
  store i32 1, ptr %10, align 4
  br label %86

19:                                               ; preds = %3
  call void @llvm.lifetime.start.p0(i64 16, ptr %11) #8
  %20 = getelementptr inbounds nuw %struct.ForEachState, ptr %11, i32 0, i32 0
  %21 = load ptr, ptr %7, align 8
  store ptr %21, ptr %20, align 8
  %22 = getelementptr inbounds nuw %struct.ForEachState, ptr %11, i32 0, i32 1
  store i32 0, ptr %22, align 8
  %23 = getelementptr i8, ptr %11, i64 12
  call void @llvm.memset.p0.i64(ptr align 4 %23, i8 0, i64 4, i1 false)
  br label %24

24:                                               ; preds = %79, %19
  %25 = getelementptr inbounds nuw %struct.ForEachState, ptr %11, i32 0, i32 0
  %26 = load ptr, ptr %25, align 8
  %27 = icmp ne ptr %26, null
  br i1 %27, label %28, label %45

28:                                               ; preds = %24
  %29 = getelementptr inbounds nuw %struct.ForEachState, ptr %11, i32 0, i32 1
  %30 = load i32, ptr %29, align 8
  %31 = getelementptr inbounds nuw %struct.ForEachState, ptr %11, i32 0, i32 0
  %32 = load ptr, ptr %31, align 8
  %33 = getelementptr inbounds nuw %struct.List, ptr %32, i32 0, i32 1
  %34 = load i32, ptr %33, align 4
  %35 = icmp slt i32 %30, %34
  br i1 %35, label %36, label %45

36:                                               ; preds = %28
  %37 = getelementptr inbounds nuw %struct.ForEachState, ptr %11, i32 0, i32 0
  %38 = load ptr, ptr %37, align 8
  %39 = getelementptr inbounds nuw %struct.List, ptr %38, i32 0, i32 3
  %40 = load ptr, ptr %39, align 8
  %41 = getelementptr inbounds nuw %struct.ForEachState, ptr %11, i32 0, i32 1
  %42 = load i32, ptr %41, align 8
  %43 = sext i32 %42 to i64
  %44 = getelementptr inbounds %union.ListCell, ptr %40, i64 %43
  store ptr %44, ptr %9, align 8
  br label %46

45:                                               ; preds = %28, %24
  store ptr null, ptr %9, align 8
  br label %46

46:                                               ; preds = %45, %36
  %47 = phi i32 [ 1, %36 ], [ 0, %45 ]
  %48 = icmp ne i32 %47, 0
  br i1 %48, label %50, label %49

49:                                               ; preds = %46
  store i32 2, ptr %10, align 4
  br label %83

50:                                               ; preds = %46
  call void @llvm.lifetime.start.p0(i64 8, ptr %12) #8
  %51 = load ptr, ptr %9, align 8
  %52 = load ptr, ptr %51, align 8
  store ptr %52, ptr %12, align 8
  %53 = load ptr, ptr %12, align 8
  %54 = getelementptr inbounds nuw %struct.SortGroupClause, ptr %53, i32 0, i32 1
  %55 = load i32, ptr %54, align 4
  %56 = load i32, ptr %8, align 4
  %57 = icmp eq i32 %55, %56
  br i1 %57, label %58, label %75

58:                                               ; preds = %50
  %59 = load i32, ptr %6, align 4
  %60 = icmp eq i32 %59, 0
  br i1 %60, label %74, label %61

61:                                               ; preds = %58
  %62 = load i32, ptr %6, align 4
  %63 = load ptr, ptr %12, align 8
  %64 = getelementptr inbounds nuw %struct.SortGroupClause, ptr %63, i32 0, i32 3
  %65 = load i32, ptr %64, align 4
  %66 = icmp eq i32 %62, %65
  br i1 %66, label %74, label %67

67:                                               ; preds = %61
  %68 = load i32, ptr %6, align 4
  %69 = load ptr, ptr %12, align 8
  %70 = getelementptr inbounds nuw %struct.SortGroupClause, ptr %69, i32 0, i32 3
  %71 = load i32, ptr %70, align 4
  %72 = call i32 @get_commutator(i32 noundef %71)
  %73 = icmp eq i32 %68, %72
  br i1 %73, label %74, label %75

74:                                               ; preds = %67, %61, %58
  store i1 true, ptr %4, align 1
  store i32 1, ptr %10, align 4
  br label %76

75:                                               ; preds = %67, %50
  store i32 0, ptr %10, align 4
  br label %76

76:                                               ; preds = %75, %74
  call void @llvm.lifetime.end.p0(i64 8, ptr %12) #8
  %77 = load i32, ptr %10, align 4
  switch i32 %77, label %83 [
    i32 0, label %78
  ]

78:                                               ; preds = %76
  br label %79

79:                                               ; preds = %78
  %80 = getelementptr inbounds nuw %struct.ForEachState, ptr %11, i32 0, i32 1
  %81 = load i32, ptr %80, align 8
  %82 = add i32 %81, 1
  store i32 %82, ptr %80, align 8
  br label %24, !llvm.loop !37

83:                                               ; preds = %76, %49
  call void @llvm.lifetime.end.p0(i64 16, ptr %11) #8
  %84 = load i32, ptr %10, align 4
  switch i32 %84, label %86 [
    i32 2, label %85
  ]

85:                                               ; preds = %83
  store i1 false, ptr %4, align 1
  store i32 1, ptr %10, align 4
  br label %86

86:                                               ; preds = %85, %83, %18
  call void @llvm.lifetime.end.p0(i64 8, ptr %9) #8
  call void @llvm.lifetime.end.p0(i64 4, ptr %8) #8
  %87 = load i1, ptr %4, align 1
  ret i1 %87
}

; Function Attrs: nounwind uwtable
define internal ptr @addTargetToGroupList(ptr noundef %0, ptr noundef %1, ptr noundef %2, ptr noundef %3, i32 noundef %4) #0 {
  %6 = alloca ptr, align 8
  %7 = alloca ptr, align 8
  %8 = alloca ptr, align 8
  %9 = alloca ptr, align 8
  %10 = alloca i32, align 4
  %11 = alloca i32, align 4
  %12 = alloca ptr, align 8
  %13 = alloca i32, align 4
  %14 = alloca i32, align 4
  %15 = alloca i8, align 1
  %16 = alloca %struct.ParseCallbackState, align 8
  store ptr %0, ptr %6, align 8
  store ptr %1, ptr %7, align 8
  store ptr %2, ptr %8, align 8
  store ptr %3, ptr %9, align 8
  store i32 %4, ptr %10, align 4
  call void @llvm.lifetime.start.p0(i64 4, ptr %11) #8
  %17 = load ptr, ptr %7, align 8
  %18 = getelementptr inbounds nuw %struct.TargetEntry, ptr %17, i32 0, i32 1
  %19 = load ptr, ptr %18, align 8
  %20 = call i32 @exprType(ptr noundef %19)
  store i32 %20, ptr %11, align 4
  %21 = load i32, ptr %11, align 4
  %22 = icmp eq i32 %21, 705
  br i1 %22, label %23, label %32

23:                                               ; preds = %5
  %24 = load ptr, ptr %6, align 8
  %25 = load ptr, ptr %7, align 8
  %26 = getelementptr inbounds nuw %struct.TargetEntry, ptr %25, i32 0, i32 1
  %27 = load ptr, ptr %26, align 8
  %28 = load i32, ptr %11, align 4
  %29 = call ptr @coerce_type(ptr noundef %24, ptr noundef %27, i32 noundef %28, i32 noundef 25, i32 noundef -1, i32 noundef 0, i32 noundef 2, i32 noundef -1)
  %30 = load ptr, ptr %7, align 8
  %31 = getelementptr inbounds nuw %struct.TargetEntry, ptr %30, i32 0, i32 1
  store ptr %29, ptr %31, align 8
  store i32 25, ptr %11, align 4
  br label %32

32:                                               ; preds = %23, %5
  %33 = load ptr, ptr %7, align 8
  %34 = load ptr, ptr %8, align 8
  %35 = call zeroext i1 @targetIsInSortList(ptr noundef %33, i32 noundef 0, ptr noundef %34)
  br i1 %35, label %64, label %36

36:                                               ; preds = %32
  call void @llvm.lifetime.start.p0(i64 8, ptr %12) #8
  %37 = call ptr @newNode(i64 noundef 20, i32 noundef 106)
  store ptr %37, ptr %12, align 8
  call void @llvm.lifetime.start.p0(i64 4, ptr %13) #8
  call void @llvm.lifetime.start.p0(i64 4, ptr %14) #8
  call void @llvm.lifetime.start.p0(i64 1, ptr %15) #8
  call void @llvm.lifetime.start.p0(i64 40, ptr %16) #8
  %38 = load ptr, ptr %6, align 8
  %39 = load i32, ptr %10, align 4
  call void @setup_parser_errposition_callback(ptr noundef %16, ptr noundef %38, i32 noundef %39)
  %40 = load i32, ptr %11, align 4
  call void @get_sort_group_operators(i32 noundef %40, i1 noundef zeroext false, i1 noundef zeroext true, i1 noundef zeroext false, ptr noundef %13, ptr noundef %14, ptr noundef null, ptr noundef %15)
  call void @cancel_parser_errposition_callback(ptr noundef %16)
  %41 = load ptr, ptr %7, align 8
  %42 = load ptr, ptr %9, align 8
  %43 = call i32 @assignSortGroupRef(ptr noundef %41, ptr noundef %42)
  %44 = load ptr, ptr %12, align 8
  %45 = getelementptr inbounds nuw %struct.SortGroupClause, ptr %44, i32 0, i32 1
  store i32 %43, ptr %45, align 4
  %46 = load i32, ptr %14, align 4
  %47 = load ptr, ptr %12, align 8
  %48 = getelementptr inbounds nuw %struct.SortGroupClause, ptr %47, i32 0, i32 2
  store i32 %46, ptr %48, align 4
  %49 = load i32, ptr %13, align 4
  %50 = load ptr, ptr %12, align 8
  %51 = getelementptr inbounds nuw %struct.SortGroupClause, ptr %50, i32 0, i32 3
  store i32 %49, ptr %51, align 4
  %52 = load ptr, ptr %12, align 8
  %53 = getelementptr inbounds nuw %struct.SortGroupClause, ptr %52, i32 0, i32 4
  store i8 0, ptr %53, align 4
  %54 = load ptr, ptr %12, align 8
  %55 = getelementptr inbounds nuw %struct.SortGroupClause, ptr %54, i32 0, i32 5
  store i8 0, ptr %55, align 1
  %56 = load i8, ptr %15, align 1, !range !6, !noundef !7
  %57 = trunc i8 %56 to i1
  %58 = load ptr, ptr %12, align 8
  %59 = getelementptr inbounds nuw %struct.SortGroupClause, ptr %58, i32 0, i32 6
  %60 = zext i1 %57 to i8
  store i8 %60, ptr %59, align 2
  %61 = load ptr, ptr %8, align 8
  %62 = load ptr, ptr %12, align 8
  %63 = call ptr @lappend(ptr noundef %61, ptr noundef %62)
  store ptr %63, ptr %8, align 8
  call void @llvm.lifetime.end.p0(i64 40, ptr %16) #8
  call void @llvm.lifetime.end.p0(i64 1, ptr %15) #8
  call void @llvm.lifetime.end.p0(i64 4, ptr %14) #8
  call void @llvm.lifetime.end.p0(i64 4, ptr %13) #8
  call void @llvm.lifetime.end.p0(i64 8, ptr %12) #8
  br label %64

64:                                               ; preds = %36, %32
  %65 = load ptr, ptr %8, align 8
  call void @llvm.lifetime.end.p0(i64 4, ptr %11) #8
  ret ptr %65
}