; Function Attrs: nounwind uwtable
define internal fastcc ptr @addTargetToGroupList(ptr noundef %0, ptr noundef captures(none) %1, ptr noundef %2, ptr noundef readonly captures(address_is_null) %3, i32 noundef %4) unnamed_addr #0 {
  %6 = alloca i32, align 4
  %7 = alloca i32, align 4
  %8 = alloca i8, align 1
  %9 = alloca %struct.ParseCallbackState, align 8
  %10 = getelementptr inbounds nuw i8, ptr %1, i64 8
  %11 = load ptr, ptr %10, align 8
  %12 = tail call i32 @exprType(ptr noundef %11) #9
  %13 = icmp eq i32 %12, 705
  br i1 %13, label %14, label %17

14:                                               ; preds = %5
  %15 = load ptr, ptr %10, align 8
  %16 = tail call ptr @coerce_type(ptr noundef %0, ptr noundef %15, i32 noundef 705, i32 noundef 25, i32 noundef -1, i32 noundef 0, i32 noundef 2, i32 noundef -1) #9
  store ptr %16, ptr %10, align 8
  br label %17

17:                                               ; preds = %14, %5
  %.021 = phi i32 [ 25, %14 ], [ %12, %5 ]
  %18 = getelementptr inbounds nuw i8, ptr %1, i64 32
  %19 = load i32, ptr %18, align 8
  %20 = icmp eq i32 %19, 0
  %.not.i = icmp eq ptr %2, null
  %or.cond = or i1 %.not.i, %20
  br i1 %or.cond, label %.loopexit, label %.lr.ph.i

.lr.ph.i:                                         ; preds = %17
  %21 = getelementptr inbounds nuw i8, ptr %2, i64 4
  %22 = load i32, ptr %21, align 4
  %23 = icmp sgt i32 %22, 0
  br i1 %23, label %.critedge.us.lr.ph.i, label %.loopexit

.critedge.us.lr.ph.i:                             ; preds = %.lr.ph.i
  %24 = getelementptr inbounds nuw i8, ptr %2, i64 16
  %25 = load ptr, ptr %24, align 8
  %wide.trip.count.i = zext nneg i32 %22 to i64
  br label %.critedge.us.i

26:                                               ; preds = %.critedge.us.i
  %indvars.iv.next62.i = add nuw nsw i64 %indvars.iv61.i, 1
  %exitcond.not.i = icmp eq i64 %indvars.iv.next62.i, %wide.trip.count.i
  br i1 %exitcond.not.i, label %.loopexit, label %.critedge.us.i

.critedge.us.i:                                   ; preds = %26, %.critedge.us.lr.ph.i
  %indvars.iv61.i = phi i64 [ 0, %.critedge.us.lr.ph.i ], [ %indvars.iv.next62.i, %26 ]
  %27 = getelementptr inbounds nuw %union.ListCell, ptr %25, i64 %indvars.iv61.i
  %28 = load ptr, ptr %27, align 8
  %29 = getelementptr inbounds nuw i8, ptr %28, i64 4
  %30 = load i32, ptr %29, align 4
  %31 = icmp eq i32 %30, %19
  br i1 %31, label %targetIsInSortList.exit, label %26

.loopexit:                                        ; preds = %26, %17, %.lr.ph.i
  %32 = tail call noundef ptr @palloc0(i64 noundef 20) #9
  store i32 106, ptr %32, align 4
  call void @llvm.lifetime.start.p0(i64 4, ptr nonnull %6) #9
  call void @llvm.lifetime.start.p0(i64 4, ptr nonnull %7) #9
  call void @llvm.lifetime.start.p0(i64 1, ptr nonnull %8) #9
  call void @llvm.lifetime.start.p0(i64 40, ptr nonnull %9) #9
  call void @setup_parser_errposition_callback(ptr noundef nonnull %9, ptr noundef %0, i32 noundef %4) #9
  call void @get_sort_group_operators(i32 noundef %.021, i1 noundef zeroext false, i1 noundef zeroext true, i1 noundef zeroext false, ptr noundef nonnull %6, ptr noundef nonnull %7, ptr noundef null, ptr noundef nonnull %8) #9
  call void @cancel_parser_errposition_callback(ptr noundef nonnull %9) #9
  %33 = load i32, ptr %18, align 8
  %.not.i23 = icmp eq i32 %33, 0
  br i1 %.not.i23, label %.preheader.i25, label %assignSortGroupRef.exit

.preheader.i25:                                   ; preds = %.loopexit
  %.not19.i = icmp eq ptr %3, null
  br i1 %.not19.i, label %._crit_edge.i, label %.lr.ph.i26

.lr.ph.i26:                                       ; preds = %.preheader.i25
  %34 = getelementptr inbounds nuw i8, ptr %3, i64 4
  %35 = load i32, ptr %34, align 4
  %36 = icmp sgt i32 %35, 0
  br i1 %36, label %.lr.ph30.i, label %._crit_edge.i

.lr.ph30.i:                                       ; preds = %.lr.ph.i26
  %37 = getelementptr inbounds nuw i8, ptr %3, i64 16
  %38 = load ptr, ptr %37, align 8
  %wide.trip.count.i27 = zext nneg i32 %35 to i64
  br label %40

._crit_edge.loopexit.i:                           ; preds = %40
  %39 = add i32 %spec.select.i, 1
  br label %._crit_edge.i

._crit_edge.i:                                    ; preds = %._crit_edge.loopexit.i, %.lr.ph.i26, %.preheader.i25
  %.014.lcssa.i = phi i32 [ 1, %.preheader.i25 ], [ 1, %.lr.ph.i26 ], [ %39, %._crit_edge.loopexit.i ]
  store i32 %.014.lcssa.i, ptr %18, align 8
  br label %assignSortGroupRef.exit

40:                                               ; preds = %40, %.lr.ph30.i
  %indvars.iv.i = phi i64 [ 0, %.lr.ph30.i ], [ %indvars.iv.next.i, %40 ]
  %.0142428.i = phi i32 [ 0, %.lr.ph30.i ], [ %spec.select.i, %40 ]
  %41 = getelementptr inbounds nuw %union.ListCell, ptr %38, i64 %indvars.iv.i
  %42 = load ptr, ptr %41, align 8
  %43 = getelementptr inbounds nuw i8, ptr %42, i64 32
  %44 = load i32, ptr %43, align 8
  %spec.select.i = call i32 @llvm.umax.i32(i32 %44, i32 %.0142428.i)
  %indvars.iv.next.i = add nuw nsw i64 %indvars.iv.i, 1
  %exitcond.not.i28 = icmp eq i64 %indvars.iv.next.i, %wide.trip.count.i27
  br i1 %exitcond.not.i28, label %._crit_edge.loopexit.i, label %40

assignSortGroupRef.exit:                          ; preds = %.loopexit, %._crit_edge.i
  %.0.i24 = phi i32 [ %.014.lcssa.i, %._crit_edge.i ], [ %33, %.loopexit ]
  %45 = getelementptr inbounds nuw i8, ptr %32, i64 4
  store i32 %.0.i24, ptr %45, align 4
  %46 = load i32, ptr %7, align 4
  %47 = getelementptr inbounds nuw i8, ptr %32, i64 8
  store i32 %46, ptr %47, align 4
  %48 = load i32, ptr %6, align 4
  %49 = getelementptr inbounds nuw i8, ptr %32, i64 12
  store i32 %48, ptr %49, align 4
  %50 = getelementptr inbounds nuw i8, ptr %32, i64 16
  store i8 0, ptr %50, align 4
  %51 = getelementptr inbounds nuw i8, ptr %32, i64 17
  store i8 0, ptr %51, align 1
  %52 = load i8, ptr %8, align 1, !range !4, !noundef !5
  %53 = getelementptr inbounds nuw i8, ptr %32, i64 18
  store i8 %52, ptr %53, align 2
  %54 = call ptr @lappend(ptr noundef %2, ptr noundef nonnull %32) #9
  call void @llvm.lifetime.end.p0(i64 40, ptr nonnull %9) #9
  call void @llvm.lifetime.end.p0(i64 1, ptr nonnull %8) #9
  call void @llvm.lifetime.end.p0(i64 4, ptr nonnull %7) #9
  call void @llvm.lifetime.end.p0(i64 4, ptr nonnull %6) #9
  br label %targetIsInSortList.exit

targetIsInSortList.exit:                          ; preds = %.critedge.us.i, %assignSortGroupRef.exit
  %.0 = phi ptr [ %54, %assignSortGroupRef.exit ], [ %2, %.critedge.us.i ]
  ret ptr %.0
}